target datalayout = "e-m:e-p270:32:32-p271:32:32-p272:64:64-i64:64-i128:128-f80:128-n8:16:32:64-S128"
target triple = "x86_64-pc-linux-gnu"

%struct.gz_state = type { i32, i32, ptr, i64, i32, i32, ptr, ptr, ptr, i32, i32, i64, i64, i32, i32, i32, i32, i64, i32, i32, ptr, %struct.z_stream_s }
%struct.z_stream_s = type { ptr, i32, i64, ptr, i32, i64, ptr, ptr, ptr, ptr, ptr, i32, i64, i64 }

; Function Attrs: nounwind uwtable
define i32 @gzgetc(ptr noundef %0) #0 {
  %2 = alloca i32, align 4
  %3 = alloca ptr, align 8
  %4 = alloca i32, align 4
  %5 = alloca [1 x i8], align 1
  %6 = alloca ptr, align 8
  %7 = alloca i32, align 4
  store ptr %0, ptr %3, align 8, !tbaa !3
  call void @llvm.lifetime.start.p0(i64 4, ptr %4) #8
  call void @llvm.lifetime.start.p0(i64 1, ptr %5) #8
  call void @llvm.lifetime.start.p0(i64 8, ptr %6) #8
  %8 = load ptr, ptr %3, align 8, !tbaa !3
  %9 = icmp eq ptr %8, null
  br i1 %9, label %10, label %11

10:                                               ; preds = %1
  store i32 -1, ptr %2, align 4
  store i32 1, ptr %7, align 4
  br label %56

11:                                               ; preds = %1
  %12 = load ptr, ptr %3, align 8, !tbaa !3
  store ptr %12, ptr %6, align 8, !tbaa !3
  %13 = load ptr, ptr %6, align 8, !tbaa !3
  %14 = getelementptr inbounds nuw %struct.gz_state, ptr %13, i32 0, i32 0
  %15 = load i32, ptr %14, align 8, !tbaa !11
  %16 = icmp ne i32 %15, 7247
  br i1 %16, label %22, label %17

17:                                               ; preds = %11
  %18 = load ptr, ptr %6, align 8, !tbaa !3
  %19 = getelementptr inbounds nuw %struct.gz_state, ptr %18, i32 0, i32 19
  %20 = load i32, ptr %19, align 4, !tbaa !17
  %21 = icmp ne i32 %20, 0
  br i1 %21, label %22, label %23

22:                                               ; preds = %17, %11
  store i32 -1, ptr %2, align 4
  store i32 1, ptr %7, align 4
  br label %56

23:                                               ; preds = %17
  %24 = load ptr, ptr %6, align 8, !tbaa !3
  %25 = getelementptr inbounds nuw %struct.gz_state, ptr %24, i32 0, i32 9
  %26 = load i32, ptr %25, align 8, !tbaa !20
  %27 = icmp ne i32 %26, 0
  br i1 %27, label %28, label %43

28:                                               ; preds = %23
  %29 = load ptr, ptr %6, align 8, !tbaa !3
  %30 = getelementptr inbounds nuw %struct.gz_state, ptr %29, i32 0, i32 9
  %31 = load i32, ptr %30, align 8, !tbaa !20
  %32 = add i32 %31, -1
  store i32 %32, ptr %30, align 8, !tbaa !20
  %33 = load ptr, ptr %6, align 8, !tbaa !3
  %34 = getelementptr inbounds nuw %struct.gz_state, ptr %33, i32 0, i32 3
  %35 = load i64, ptr %34, align 8, !tbaa !28
  %36 = add nsw i64 %35, 1
  store i64 %36, ptr %34, align 8, !tbaa !28
  %37 = load ptr, ptr %6, align 8, !tbaa !3
  %38 = getelementptr inbounds nuw %struct.gz_state, ptr %37, i32 0, i32 8
  %39 = load ptr, ptr %38, align 8, !tbaa !21
  %40 = getelementptr inbounds nuw i8, ptr %39, i32 1
  store ptr %40, ptr %38, align 8, !tbaa !21
  %41 = load i8, ptr %39, align 1, !tbaa !44
  %42 = zext i8 %41 to i32
  store i32 %42, ptr %2, align 4
  store i32 1, ptr %7, align 4
  br label %56

43:                                               ; preds = %23
  %44 = load ptr, ptr %3, align 8, !tbaa !3
  %45 = getelementptr inbounds [1 x i8], ptr %5, i64 0, i64 0
  %46 = call i32 @gzread(ptr noundef %44, ptr noundef %45, i32 noundef 1)
  store i32 %46, ptr %4, align 4, !tbaa !7
  %47 = load i32, ptr %4, align 4, !tbaa !7
  %48 = icmp slt i32 %47, 1
  br i1 %48, label %49, label %50

49:                                               ; preds = %43
  br label %54

50:                                               ; preds = %43
  %51 = getelementptr inbounds [1 x i8], ptr %5, i64 0, i64 0
  %52 = load i8, ptr %51, align 1, !tbaa !44
  %53 = zext i8 %52 to i32
  br label %54

54:                                               ; preds = %50, %49
  %55 = phi i32 [ -1, %49 ], [ %53, %50 ]
  store i32 %55, ptr %2, align 4
  store i32 1, ptr %7, align 4
  br label %56

56:                                               ; preds = %54, %28, %22, %10
  call void @llvm.lifetime.end.p0(i64 8, ptr %6) #8
  call void @llvm.lifetime.end.p0(i64 1, ptr %5) #8
  call void @llvm.lifetime.end.p0(i64 4, ptr %4) #8
  %57 = load i32, ptr %2, align 4
  ret i32 %57
}