; Function Attrs: nounwind uwtable
define range(i32 -1, 256) i32 @gzgetc(ptr noundef %0) local_unnamed_addr #0 {
  %2 = alloca [1 x i8], align 1
  call void @llvm.lifetime.start.p0(i64 1, ptr nonnull %2) #12
  %3 = icmp eq ptr %0, null
  br i1 %3, label %28, label %4

4:                                                ; preds = %1
  %5 = load i32, ptr %0, align 8, !tbaa !3
  %.not = icmp eq i32 %5, 7247
  br i1 %.not, label %6, label %28

6:                                                ; preds = %4
  %7 = getelementptr inbounds nuw i8, ptr %0, i64 108
  %8 = load i32, ptr %7, align 4, !tbaa !13
  %.not12 = icmp eq i32 %8, 0
  br i1 %.not12, label %9, label %28

9:                                                ; preds = %6
  %10 = getelementptr inbounds nuw i8, ptr %0, i64 56
  %11 = load i32, ptr %10, align 8, !tbaa !16
  %.not13 = icmp eq i32 %11, 0
  br i1 %.not13, label %22, label %12

12:                                               ; preds = %9
  %13 = add i32 %11, -1
  store i32 %13, ptr %10, align 8, !tbaa !16
  %14 = getelementptr inbounds nuw i8, ptr %0, i64 16
  %15 = load i64, ptr %14, align 8, !tbaa !18
  %16 = add nsw i64 %15, 1
  store i64 %16, ptr %14, align 8, !tbaa !18
  %17 = getelementptr inbounds nuw i8, ptr %0, i64 48
  %18 = load ptr, ptr %17, align 8, !tbaa !17
  %19 = getelementptr inbounds nuw i8, ptr %18, i64 1
  store ptr %19, ptr %17, align 8, !tbaa !17
  %20 = load i8, ptr %18, align 1, !tbaa !40
  %21 = zext i8 %20 to i32
  br label %28

22:                                               ; preds = %9
  %23 = call i32 @gzread(ptr noundef nonnull %0, ptr noundef nonnull %2, i32 noundef 1)
  %24 = icmp slt i32 %23, 1
  %25 = load i8, ptr %2, align 1
  %26 = zext i8 %25 to i32
  %27 = select i1 %24, i32 -1, i32 %26
  br label %28

28:                                               ; preds = %4, %6, %1, %22, %12
  %.0 = phi i32 [ %21, %12 ], [ %27, %22 ], [ -1, %1 ], [ -1, %6 ], [ -1, %4 ]
  call void @llvm.lifetime.end.p0(i64 1, ptr nonnull %2) #12
  ret i32 %.0
}